; Function Attrs: nounwind uwtable
define internal void @term_writef(ptr noundef readonly captures(none) %0, ptr noundef %1, ...) unnamed_addr #0 {
  %3 = alloca [1 x %struct.__va_list_tag], align 16
  call void @llvm.lifetime.start.p0(i64 24, ptr nonnull %3) #32
  call void @llvm.va_start.p0(ptr nonnull %3)
  %4 = getelementptr i8, ptr %0, i64 56
  %.val = load ptr, ptr %4, align 8, !tbaa !171
  call fastcc void @sbuf_append_vprintf(ptr noundef %.val, ptr noundef %1, ptr noundef nonnull %3)
  call void @llvm.va_end.p0(ptr nonnull %3)
  call void @llvm.lifetime.end.p0(i64 24, ptr nonnull %3) #32
  ret void
}